; Function Attrs: mustprogress nofree norecurse nosync nounwind willreturn memory(argmem: write) uwtable
define void @_ZN3g2o26MarginalCovarianceCholeskyC2Ev(ptr noundef nonnull align 8 dereferenceable(120) %0) unnamed_addr #3 align 2 {
  store i32 0, ptr %0, align 8
  %2 = getelementptr inbounds nuw i8, ptr %0, i64 8
  %3 = getelementptr inbounds nuw i8, ptr %0, i64 40
  %4 = getelementptr inbounds i8, ptr %0, i64 88
  tail call void @llvm.memset.p0.i64(ptr noundef nonnull align 8 dereferenceable(32) %2, i8 0, i64 32, i1 false)
  store ptr %4, ptr %3, align 8
  %5 = getelementptr inbounds i8, ptr %0, i64 48
  store i64 1, ptr %5, align 8
  %6 = getelementptr inbounds i8, ptr %0, i64 56
  %7 = getelementptr inbounds i8, ptr %0, i64 72
  tail call void @llvm.memset.p0.i64(ptr noundef nonnull align 8 dereferenceable(16) %6, i8 0, i64 16, i1 false)
  store float 1.000000e+00, ptr %7, align 8
  %8 = getelementptr inbounds i8, ptr %0, i64 80
  tail call void @llvm.memset.p0.i64(ptr noundef nonnull align 8 dereferenceable(40) %8, i8 0, i64 40, i1 false)
  ret void
}